; Function Attrs: nounwind uwtable
define void @Gia_MmStepStop(ptr noundef captures(none) %0, i32 noundef %1) local_unnamed_addr #2 {
  %3 = load i32, ptr %0, align 8, !tbaa !39
  %4 = icmp sgt i32 %3, 0
  br i1 %4, label %.lr.ph, label %._crit_edge

.lr.ph:                                           ; preds = %2
  %5 = getelementptr inbounds nuw i8, ptr %0, i64 8
  br label %6

6:                                                ; preds = %.lr.ph, %6
  %indvars.iv = phi i64 [ 0, %.lr.ph ], [ %indvars.iv.next, %6 ]
  %7 = load ptr, ptr %5, align 8, !tbaa !42
  %8 = getelementptr inbounds nuw ptr, ptr %7, i64 %indvars.iv
  %9 = load ptr, ptr %8, align 8, !tbaa !43
  tail call void @Gia_MmFixedStop(ptr noundef %9, i32 noundef %1)
  %indvars.iv.next = add nuw nsw i64 %indvars.iv, 1
  %10 = load i32, ptr %0, align 8, !tbaa !39
  %11 = sext i32 %10 to i64
  %12 = icmp slt i64 %indvars.iv.next, %11
  br i1 %12, label %6, label %._crit_edge, !llvm.loop !54

._crit_edge:                                      ; preds = %6, %2
  %13 = getelementptr inbounds nuw i8, ptr %0, i64 32
  %14 = load i32, ptr %13, align 8, !tbaa !51
  %.not = icmp eq i32 %14, 0
  br i1 %.not, label %33, label %.preheader

.preheader:                                       ; preds = %._crit_edge
  %15 = getelementptr inbounds nuw i8, ptr %0, i64 36
  %16 = load i32, ptr %15, align 4, !tbaa !52
  %17 = icmp sgt i32 %16, 0
  %18 = getelementptr inbounds nuw i8, ptr %0, i64 40
  %.pre = load ptr, ptr %18, align 8, !tbaa !53
  br i1 %17, label %.lr.ph36, label %._crit_edge37

.lr.ph36:                                         ; preds = %.preheader, %26
  %19 = phi i32 [ %27, %26 ], [ %16, %.preheader ]
  %20 = phi ptr [ %28, %26 ], [ %.pre, %.preheader ]
  %indvars.iv39 = phi i64 [ %indvars.iv.next40, %26 ], [ 0, %.preheader ]
  %21 = getelementptr inbounds nuw ptr, ptr %20, i64 %indvars.iv39
  %22 = load ptr, ptr %21, align 8, !tbaa !18
  %.not33 = icmp eq ptr %22, null
  br i1 %.not33, label %26, label %23

23:                                               ; preds = %.lr.ph36
  tail call void @free(ptr noundef nonnull %22) #15
  %24 = load ptr, ptr %18, align 8, !tbaa !53
  %25 = getelementptr inbounds nuw ptr, ptr %24, i64 %indvars.iv39
  store ptr null, ptr %25, align 8, !tbaa !18
  %.pre42 = load i32, ptr %15, align 4, !tbaa !52
  br label %26

26:                                               ; preds = %23, %.lr.ph36
  %27 = phi i32 [ %.pre42, %23 ], [ %19, %.lr.ph36 ]
  %28 = phi ptr [ %24, %23 ], [ %20, %.lr.ph36 ]
  %indvars.iv.next40 = add nuw nsw i64 %indvars.iv39, 1
  %29 = sext i32 %27 to i64
  %30 = icmp slt i64 %indvars.iv.next40, %29
  br i1 %30, label %.lr.ph36, label %._crit_edge37.thread, !llvm.loop !55

._crit_edge37:                                    ; preds = %.preheader
  %.not30 = icmp eq ptr %.pre, null
  br i1 %.not30, label %33, label %._crit_edge37.thread

._crit_edge37.thread:                             ; preds = %26, %._crit_edge37
  %31 = phi ptr [ %.pre, %._crit_edge37 ], [ %28, %26 ]
  %32 = getelementptr inbounds nuw i8, ptr %0, i64 40
  tail call void @free(ptr noundef nonnull %31) #15
  store ptr null, ptr %32, align 8, !tbaa !53
  br label %33

33:                                               ; preds = %._crit_edge37.thread, %._crit_edge37, %._crit_edge
  %34 = getelementptr inbounds nuw i8, ptr %0, i64 8
  %35 = load ptr, ptr %34, align 8, !tbaa !42
  %.not31 = icmp eq ptr %35, null
  br i1 %.not31, label %37, label %36

36:                                               ; preds = %33
  tail call void @free(ptr noundef nonnull %35) #15
  store ptr null, ptr %34, align 8, !tbaa !42
  br label %37

37:                                               ; preds = %33, %36
  %38 = getelementptr inbounds nuw i8, ptr %0, i64 24
  %39 = load ptr, ptr %38, align 8, !tbaa !47
  %.not32 = icmp eq ptr %39, null
  br i1 %.not32, label %41, label %40

40:                                               ; preds = %37
  tail call void @free(ptr noundef nonnull %39) #15
  br label %41

41:                                               ; preds = %40, %37
  tail call void @free(ptr noundef nonnull %0) #15
  ret void
}